---
triple:          'arm64-apple-darwin'
binary-path:     '/Users/illmilo/Desktop/iu/DSA/hw/w6'
relocations:
  - { offset: 0xE576, size: 0x8, addend: 0x0, symName: __ZStL8__ioinit, symObjAddr: 0x634D4, symBinAddr: 0x100010000, symSize: 0x0 }
  - { offset: 0xE664, size: 0x8, addend: 0x0, symName: __ZL6MAX_EL, symObjAddr: 0x4F10, symBinAddr: 0x100007F48, symSize: 0x0 }
  - { offset: 0xEF39, size: 0x8, addend: 0x0, symName: __ZSt9__fill_a1IPiiEN9__gnu_cxx11__enable_ifIXsrSt11__is_scalarIT0_E7__valueEvE6__typeET_S8_RKS4_, symObjAddr: 0x4EB8, symBinAddr: 0x1000071C4, symSize: 0x58 }
  - { offset: 0xF010, size: 0x8, addend: 0x0, symName: __ZSt7forwardISt4pairIdiEEOT_RNSt16remove_referenceIS2_E4typeE, symObjAddr: 0x4EA4, symBinAddr: 0x1000071B0, symSize: 0x14 }
  - { offset: 0xF07E, size: 0x8, addend: 0x0, symName: __ZSt8__fill_aIPiiEvT_S1_RKT0_, symObjAddr: 0x4E74, symBinAddr: 0x100007180, symSize: 0x30 }
  - { offset: 0xF106, size: 0x8, addend: 0x0, symName: __ZNSt4pairIdiEC1IdiLb1EEEv, symObjAddr: 0x4E50, symBinAddr: 0x10000715C, symSize: 0x24 }
  - { offset: 0xF166, size: 0x8, addend: 0x0, symName: __ZNSt4pairIddEC1IddLb1EEEv, symObjAddr: 0x4E2C, symBinAddr: 0x100007138, symSize: 0x24 }
  - { offset: 0xF208, size: 0x8, addend: 0x0, symName: __ZSt4moveIRSt4pairIdiEEONSt16remove_referenceIT_E4typeEOS4_, symObjAddr: 0x4E18, symBinAddr: 0x100007124, symSize: 0x14 }
  - { offset: 0xF254, size: 0x8, addend: 0x0, symName: __ZNSt12_Vector_baseISt4pairIdiESaIS1_EE12_Vector_implC1Ev, symObjAddr: 0x4DE0, symBinAddr: 0x1000070EC, symSize: 0x38 }
  - { offset: 0xF2D2, size: 0x8, addend: 0x0, symName: __ZNSt12_Vector_baseIiSaIiEE12_Vector_implC1Ev, symObjAddr: 0x4DA8, symBinAddr: 0x1000070B4, symSize: 0x38 }
  - { offset: 0xF334, size: 0x8, addend: 0x0, symName: __ZSt19__relocate_object_aISt4pairIiiES1_SaIS1_EEvPT_PT0_RT1_, symObjAddr: 0x4CE4, symBinAddr: 0x100006FF0, symSize: 0xC4 }
  - { offset: 0xF454, size: 0x8, addend: 0x0, symName: __ZSt11__addressofISt4pairIiiEEPT_RS2_, symObjAddr: 0x4CD0, symBinAddr: 0x100006FDC, symSize: 0x14 }
  - { offset: 0xF498, size: 0x8, addend: 0x0, symName: __ZSt10__fill_n_aIPimiET_S1_T0_RKT1_St26random_access_iterator_tag, symObjAddr: 0x4C6C, symBinAddr: 0x100006F78, symSize: 0x64 }
  - { offset: 0xF518, size: 0x8, addend: 0x0, symName: __ZSt10_ConstructISt4pairIdiEJEEvPT_DpOT0_, symObjAddr: 0x4C40, symBinAddr: 0x100006F4C, symSize: 0x2C }
  - { offset: 0xF551, size: 0x8, addend: 0x0, symName: __ZSt10_ConstructISt4pairIddEJEEvPT_DpOT0_, symObjAddr: 0x4C14, symBinAddr: 0x100006F20, symSize: 0x2C }
  - { offset: 0xF58A, size: 0x8, addend: 0x0, symName: __ZSt11__addressofISt4pairIddEEPT_RS2_, symObjAddr: 0x4C00, symBinAddr: 0x100006F0C, symSize: 0x14 }
  - { offset: 0xF5BE, size: 0x8, addend: 0x0, symName: __ZNSt15__new_allocatorISt4pairIddEE8allocateEmPKv, symObjAddr: 0x4B84, symBinAddr: 0x100006E90, symSize: 0x7C }
  - { offset: 0xF63C, size: 0x8, addend: 0x0, symName: __ZSt19__relocate_object_aISt4pairIdiES1_SaIS1_EEvPT_PT0_RT1_, symObjAddr: 0x4AC0, symBinAddr: 0x100006DCC, symSize: 0xC4 }
  - { offset: 0xF75C, size: 0x8, addend: 0x0, symName: __ZSt11__addressofISt4pairIdiEEPT_RS2_, symObjAddr: 0x4AAC, symBinAddr: 0x100006DB8, symSize: 0x14 }
  - { offset: 0xF78C, size: 0x8, addend: 0x0, symName: __ZSt10_ConstructISt6vectorISt4pairIdiESaIS2_EEJEEvPT_DpOT0_, symObjAddr: 0x4A78, symBinAddr: 0x100006D84, symSize: 0x34 }
  - { offset: 0xF7E1, size: 0x8, addend: 0x0, symName: __ZNSt6vectorISt4pairIdiESaIS1_EEC1Ev, symObjAddr: 0x4A58, symBinAddr: 0x100006D64, symSize: 0x20 }
  - { offset: 0xF81D, size: 0x8, addend: 0x0, symName: __ZNSt12_Vector_baseISt4pairIdiESaIS1_EEC2Ev, symObjAddr: 0x4A38, symBinAddr: 0x100006D44, symSize: 0x20 }
  - { offset: 0xF841, size: 0x8, addend: 0x0, symName: __ZNSt15__new_allocatorISt6vectorISt4pairIdiESaIS2_EEE8allocateEmPKv, symObjAddr: 0x49A8, symBinAddr: 0x100006CB4, symSize: 0x90 }
  - { offset: 0xF8BF, size: 0x8, addend: 0x0, symName: __ZSt10_ConstructISt6vectorIiSaIiEEJEEvPT_DpOT0_, symObjAddr: 0x4974, symBinAddr: 0x100006C80, symSize: 0x34 }
  - { offset: 0xF914, size: 0x8, addend: 0x0, symName: __ZNSt6vectorIiSaIiEEC1Ev, symObjAddr: 0x4954, symBinAddr: 0x100006C60, symSize: 0x20 }
  - { offset: 0xF950, size: 0x8, addend: 0x0, symName: __ZNSt12_Vector_baseIiSaIiEEC2Ev, symObjAddr: 0x4934, symBinAddr: 0x100006C40, symSize: 0x20 }
  - { offset: 0xF974, size: 0x8, addend: 0x0, symName: __ZNSt15__new_allocatorISt6vectorIiSaIiEEE8allocateEmPKv, symObjAddr: 0x48A4, symBinAddr: 0x100006BB0, symSize: 0x90 }
  - { offset: 0xF9F2, size: 0x8, addend: 0x0, symName: __ZSt10_ConstructIiJEEvPT_DpOT0_, symObjAddr: 0x4878, symBinAddr: 0x100006B84, symSize: 0x2C }
  - { offset: 0xFA2B, size: 0x8, addend: 0x0, symName: __ZSt11__addressofIiEPT_RS0_, symObjAddr: 0x4864, symBinAddr: 0x100006B70, symSize: 0x14 }
  - { offset: 0xFA5B, size: 0x8, addend: 0x0, symName: __ZSt14__relocate_a_1IPSt4pairIiiES2_SaIS1_EET0_T_S5_S4_RT1_, symObjAddr: 0x47E0, symBinAddr: 0x100006AEC, symSize: 0x84 }
  - { offset: 0xFADE, size: 0x8, addend: 0x0, symName: __ZSt12__niter_baseIPSt4pairIiiEET_S3_, symObjAddr: 0x47CC, symBinAddr: 0x100006AD8, symSize: 0x14 }
  - { offset: 0xFB13, size: 0x8, addend: 0x0, symName: __ZNSt15__new_allocatorISt4pairIiiEE8allocateEmPKv, symObjAddr: 0x4750, symBinAddr: 0x100006A5C, symSize: 0x7C }
  - { offset: 0xFB95, size: 0x8, addend: 0x0, symName: __ZNKSt12_Vector_baseISt4pairIiiESaIS1_EE19_M_get_Tp_allocatorEv, symObjAddr: 0x473C, symBinAddr: 0x100006A48, symSize: 0x14 }
  - { offset: 0xFBB9, size: 0x8, addend: 0x0, symName: __ZNSt6vectorISt4pairIiiESaIS1_EE11_S_max_sizeERKS2_, symObjAddr: 0x46E8, symBinAddr: 0x1000069F4, symSize: 0x54 }
  - { offset: 0xFC66, size: 0x8, addend: 0x0, symName: __ZSt6fill_nIPimiET_S1_T0_RKT1_, symObjAddr: 0x46A0, symBinAddr: 0x1000069AC, symSize: 0x48 }
  - { offset: 0xFCE8, size: 0x8, addend: 0x0, symName: __ZNSt27__uninitialized_default_n_1ILb0EE18__uninit_default_nIPSt4pairIdiEmEET_S5_T0_, symObjAddr: 0x4618, symBinAddr: 0x100006924, symSize: 0x88 }
  - { offset: 0xFD56, size: 0x8, addend: 0x0, symName: __ZNSt27__uninitialized_default_n_1ILb0EE18__uninit_default_nIPSt4pairIddEmEET_S5_T0_, symObjAddr: 0x4590, symBinAddr: 0x10000689C, symSize: 0x88 }
  - { offset: 0xFDB4, size: 0x8, addend: 0x0, symName: __ZNSt15__new_allocatorISt4pairIddEE10deallocateEPS1_m, symObjAddr: 0x4560, symBinAddr: 0x10000686C, symSize: 0x30 }
  - { offset: 0xFE2B, size: 0x8, addend: 0x0, symName: __ZSt14__relocate_a_1IPSt4pairIdiES2_SaIS1_EET0_T_S5_S4_RT1_, symObjAddr: 0x44DC, symBinAddr: 0x1000067E8, symSize: 0x84 }
  - { offset: 0xFEAE, size: 0x8, addend: 0x0, symName: __ZSt12__niter_baseIPSt4pairIdiEET_S3_, symObjAddr: 0x44C8, symBinAddr: 0x1000067D4, symSize: 0x14 }
  - { offset: 0xFEE3, size: 0x8, addend: 0x0, symName: __ZNSt15__new_allocatorISt4pairIdiEE8allocateEmPKv, symObjAddr: 0x444C, symBinAddr: 0x100006758, symSize: 0x7C }
  - { offset: 0xFF65, size: 0x8, addend: 0x0, symName: __ZNKSt12_Vector_baseISt4pairIdiESaIS1_EE19_M_get_Tp_allocatorEv, symObjAddr: 0x4438, symBinAddr: 0x100006744, symSize: 0x14 }
  - { offset: 0xFF89, size: 0x8, addend: 0x0, symName: __ZSt8_DestroyISt6vectorISt4pairIdiESaIS2_EEEvPT_, symObjAddr: 0x4418, symBinAddr: 0x100006724, symSize: 0x20 }
  - { offset: 0xFFB9, size: 0x8, addend: 0x0, symName: __ZSt11__addressofISt6vectorISt4pairIdiESaIS2_EEEPT_RS5_, symObjAddr: 0x4404, symBinAddr: 0x100006710, symSize: 0x14 }
  - { offset: 0xFFE9, size: 0x8, addend: 0x0, symName: __ZNSt27__uninitialized_default_n_1ILb0EE18__uninit_default_nIPSt6vectorISt4pairIdiESaIS4_EEmEET_S8_T0_, symObjAddr: 0x43AC, symBinAddr: 0x1000066B8, symSize: 0x58 }
  - { offset: 0x10047, size: 0x8, addend: 0x0, symName: __ZNSt15__new_allocatorISt6vectorISt4pairIdiESaIS2_EEE10deallocateEPS4_m, symObjAddr: 0x4370, symBinAddr: 0x10000667C, symSize: 0x3C }
  - { offset: 0x100BE, size: 0x8, addend: 0x0, symName: __ZSt14__relocate_a_1IiiENSt9enable_ifIXsrSt24__is_bitwise_relocatableIT_vE5valueEPS2_E4typeES4_S4_S4_RSaIT0_E, symObjAddr: 0x430C, symBinAddr: 0x100006618, symSize: 0x64 }
  - { offset: 0x10138, size: 0x8, addend: 0x0, symName: __ZSt12__niter_baseIPiET_S1_, symObjAddr: 0x42F8, symBinAddr: 0x100006604, symSize: 0x14 }
  - { offset: 0x1016D, size: 0x8, addend: 0x0, symName: __ZNSt15__new_allocatorIiE8allocateEmPKv, symObjAddr: 0x427C, symBinAddr: 0x100006588, symSize: 0x7C }
  - { offset: 0x101EF, size: 0x8, addend: 0x0, symName: __ZNKSt12_Vector_baseIiSaIiEE19_M_get_Tp_allocatorEv, symObjAddr: 0x4268, symBinAddr: 0x100006574, symSize: 0x14 }
  - { offset: 0x10213, size: 0x8, addend: 0x0, symName: __ZSt8_DestroyISt6vectorIiSaIiEEEvPT_, symObjAddr: 0x4248, symBinAddr: 0x100006554, symSize: 0x20 }
  - { offset: 0x10243, size: 0x8, addend: 0x0, symName: __ZSt11__addressofISt6vectorIiSaIiEEEPT_RS3_, symObjAddr: 0x4234, symBinAddr: 0x100006540, symSize: 0x14 }
  - { offset: 0x10273, size: 0x8, addend: 0x0, symName: __ZNSt27__uninitialized_default_n_1ILb0EE18__uninit_default_nIPSt6vectorIiSaIiEEmEET_S6_T0_, symObjAddr: 0x41DC, symBinAddr: 0x1000064E8, symSize: 0x58 }
  - { offset: 0x102D1, size: 0x8, addend: 0x0, symName: __ZNSt15__new_allocatorISt6vectorIiSaIiEEE10deallocateEPS2_m, symObjAddr: 0x41A0, symBinAddr: 0x1000064AC, symSize: 0x3C }
  - { offset: 0x10348, size: 0x8, addend: 0x0, symName: __ZNSt27__uninitialized_default_n_1ILb1EE18__uninit_default_nIPimEET_S3_T0_, symObjAddr: 0x413C, symBinAddr: 0x100006448, symSize: 0x64 }
  - { offset: 0x103BB, size: 0x8, addend: 0x0, symName: __ZSt12__relocate_aIPSt4pairIiiES2_SaIS1_EET0_T_S5_S4_RT1_, symObjAddr: 0x40E0, symBinAddr: 0x1000063EC, symSize: 0x5C }
  - { offset: 0x10453, size: 0x8, addend: 0x0, symName: __ZNKSt6vectorISt4pairIiiESaIS1_EE8max_sizeEv, symObjAddr: 0x40C0, symBinAddr: 0x1000063CC, symSize: 0x20 }
  - { offset: 0x10477, size: 0x8, addend: 0x0, symName: __ZNSt22__uninitialized_fill_nILb1EE15__uninit_fill_nIPimiEET_S3_T0_RKT1_, symObjAddr: 0x4094, symBinAddr: 0x1000063A0, symSize: 0x2C }
  - { offset: 0x104EE, size: 0x8, addend: 0x0, symName: __ZNSt12_Destroy_auxILb1EE9__destroyIPSt4pairIdiEEEvT_S5_, symObjAddr: 0x407C, symBinAddr: 0x100006388, symSize: 0x18 }
  - { offset: 0x1051F, size: 0x8, addend: 0x0, symName: __ZSt25__uninitialized_default_nIPSt4pairIdiEmET_S3_T0_, symObjAddr: 0x4050, symBinAddr: 0x10000635C, symSize: 0x2C }
  - { offset: 0x10596, size: 0x8, addend: 0x0, symName: __ZNSt12_Vector_baseISt4pairIdiESaIS1_EE17_Vector_impl_dataC2Ev, symObjAddr: 0x4024, symBinAddr: 0x100006330, symSize: 0x2C }
  - { offset: 0x105E3, size: 0x8, addend: 0x0, symName: __ZNSt12_Destroy_auxILb1EE9__destroyIPSt4pairIddEEEvT_S5_, symObjAddr: 0x400C, symBinAddr: 0x100006318, symSize: 0x18 }
  - { offset: 0x10614, size: 0x8, addend: 0x0, symName: __ZSt25__uninitialized_default_nIPSt4pairIddEmET_S3_T0_, symObjAddr: 0x3FE0, symBinAddr: 0x1000062EC, symSize: 0x2C }
  - { offset: 0x106A1, size: 0x8, addend: 0x0, symName: __ZNSt12_Vector_baseISt4pairIddESaIS1_EE11_M_allocateEm, symObjAddr: 0x3F90, symBinAddr: 0x10000629C, symSize: 0x50 }
  - { offset: 0x1071B, size: 0x8, addend: 0x0, symName: __ZNSt12_Vector_baseISt4pairIddESaIS1_EE17_Vector_impl_dataC2Ev, symObjAddr: 0x3F64, symBinAddr: 0x100006270, symSize: 0x2C }
  - { offset: 0x10768, size: 0x8, addend: 0x0, symName: __ZSt12__relocate_aIPSt4pairIdiES2_SaIS1_EET0_T_S5_S4_RT1_, symObjAddr: 0x3F08, symBinAddr: 0x100006214, symSize: 0x5C }
  - { offset: 0x107DF, size: 0x8, addend: 0x0, symName: __ZNSt15__new_allocatorISt4pairIdiEE10deallocateEPS1_m, symObjAddr: 0x3ED8, symBinAddr: 0x1000061E4, symSize: 0x30 }
  - { offset: 0x10846, size: 0x8, addend: 0x0, symName: __ZNKSt6vectorISt4pairIdiESaIS1_EE8max_sizeEv, symObjAddr: 0x3EB8, symBinAddr: 0x1000061C4, symSize: 0x20 }
  - { offset: 0x1086A, size: 0x8, addend: 0x0, symName: __ZNSt12_Destroy_auxILb0EE9__destroyIPSt6vectorISt4pairIdiESaIS4_EEEEvT_S8_, symObjAddr: 0x3E6C, symBinAddr: 0x100006178, symSize: 0x4C }
  - { offset: 0x108A9, size: 0x8, addend: 0x0, symName: __ZSt25__uninitialized_default_nIPSt6vectorISt4pairIdiESaIS2_EEmET_S6_T0_, symObjAddr: 0x3E40, symBinAddr: 0x10000614C, symSize: 0x2C }
  - { offset: 0x10936, size: 0x8, addend: 0x0, symName: __ZNSt12_Vector_baseISt6vectorISt4pairIdiESaIS2_EESaIS4_EE11_M_allocateEm, symObjAddr: 0x3DF0, symBinAddr: 0x1000060FC, symSize: 0x50 }
  - { offset: 0x109B0, size: 0x8, addend: 0x0, symName: __ZNSt12_Vector_baseISt6vectorISt4pairIdiESaIS2_EESaIS4_EE17_Vector_impl_dataC2Ev, symObjAddr: 0x3DC4, symBinAddr: 0x1000060D0, symSize: 0x2C }
  - { offset: 0x109FD, size: 0x8, addend: 0x0, symName: __ZSt12__relocate_aIPiS0_SaIiEET0_T_S3_S2_RT1_, symObjAddr: 0x3D68, symBinAddr: 0x100006074, symSize: 0x5C }
  - { offset: 0x10A74, size: 0x8, addend: 0x0, symName: __ZNSt15__new_allocatorIiE10deallocateEPim, symObjAddr: 0x3D38, symBinAddr: 0x100006044, symSize: 0x30 }
  - { offset: 0x10ADD, size: 0x8, addend: 0x0, symName: __ZSt3maxImERKT_S2_S2_, symObjAddr: 0x3D00, symBinAddr: 0x10000600C, symSize: 0x38 }
  - { offset: 0x10B22, size: 0x8, addend: 0x0, symName: __ZNKSt6vectorIiSaIiEE4sizeEv, symObjAddr: 0x3CD8, symBinAddr: 0x100005FE4, symSize: 0x28 }
  - { offset: 0x10B4A, size: 0x8, addend: 0x0, symName: __ZNKSt6vectorIiSaIiEE8max_sizeEv, symObjAddr: 0x3CB8, symBinAddr: 0x100005FC4, symSize: 0x20 }
  - { offset: 0x10B6E, size: 0x8, addend: 0x0, symName: __ZNSt12_Destroy_auxILb0EE9__destroyIPSt6vectorIiSaIiEEEEvT_S6_, symObjAddr: 0x3C6C, symBinAddr: 0x100005F78, symSize: 0x4C }
  - { offset: 0x10BAD, size: 0x8, addend: 0x0, symName: __ZSt25__uninitialized_default_nIPSt6vectorIiSaIiEEmET_S4_T0_, symObjAddr: 0x3C40, symBinAddr: 0x100005F4C, symSize: 0x2C }
  - { offset: 0x10C3A, size: 0x8, addend: 0x0, symName: __ZNSt12_Vector_baseISt6vectorIiSaIiEESaIS2_EE11_M_allocateEm, symObjAddr: 0x3BF0, symBinAddr: 0x100005EFC, symSize: 0x50 }
  - { offset: 0x10CB4, size: 0x8, addend: 0x0, symName: __ZNSt12_Vector_baseISt6vectorIiSaIiEESaIS2_EE17_Vector_impl_dataC2Ev, symObjAddr: 0x3BC4, symBinAddr: 0x100005ED0, symSize: 0x2C }
  - { offset: 0x10D01, size: 0x8, addend: 0x0, symName: __ZSt25__uninitialized_default_nIPimET_S1_T0_, symObjAddr: 0x3B98, symBinAddr: 0x100005EA4, symSize: 0x2C }
  - { offset: 0x10D60, size: 0x8, addend: 0x0, symName: __ZNK9__gnu_cxx17__normal_iteratorIPSt4pairIiiESt6vectorIS2_SaIS2_EEEmiEl, symObjAddr: 0x3B54, symBinAddr: 0x100005E60, symSize: 0x44 }
  - { offset: 0x10D94, size: 0x8, addend: 0x0, symName: __ZNSt6vectorISt4pairIiiESaIS1_EE11_S_relocateEPS1_S4_S4_RS2_, symObjAddr: 0x3B20, symBinAddr: 0x100005E2C, symSize: 0x34 }
  - { offset: 0x10DEC, size: 0x8, addend: 0x0, symName: __ZSt12__to_addressISt4pairIiiEEPT_S3_, symObjAddr: 0x3B0C, symBinAddr: 0x100005E18, symSize: 0x14 }
  - { offset: 0x10E20, size: 0x8, addend: 0x0, symName: __ZNSt12_Vector_baseISt4pairIiiESaIS1_EE11_M_allocateEm, symObjAddr: 0x3ABC, symBinAddr: 0x100005DC8, symSize: 0x50 }
  - { offset: 0x10E84, size: 0x8, addend: 0x0, symName: __ZN9__gnu_cxxmiIPSt4pairIiiESt6vectorIS2_SaIS2_EEEENS_17__normal_iteratorIT_T0_E15difference_typeERKSA_SD_, symObjAddr: 0x3A7C, symBinAddr: 0x100005D88, symSize: 0x40 }
  - { offset: 0x10ED2, size: 0x8, addend: 0x0, symName: __ZNKSt6vectorISt4pairIiiESaIS1_EE12_M_check_lenEmPKc, symObjAddr: 0x39AC, symBinAddr: 0x100005CB8, symSize: 0xD0 }
  - { offset: 0x10F64, size: 0x8, addend: 0x0, symName: __ZNSt12_Destroy_auxILb1EE9__destroyIPSt4pairIiiEEEvT_S5_, symObjAddr: 0x3994, symBinAddr: 0x100005CA0, symSize: 0x18 }
  - { offset: 0x10F99, size: 0x8, addend: 0x0, symName: __ZNSt15__new_allocatorISt4pairIiiEE10deallocateEPS1_m, symObjAddr: 0x3964, symBinAddr: 0x100005C70, symSize: 0x30 }
  - { offset: 0x10FDB, size: 0x8, addend: 0x0, symName: __ZNSt12_Destroy_auxILb1EE9__destroyIPiEEvT_S3_, symObjAddr: 0x394C, symBinAddr: 0x100005C58, symSize: 0x18 }
  - { offset: 0x1100C, size: 0x8, addend: 0x0, symName: __ZSt20uninitialized_fill_nIPimiET_S1_T0_RKT1_, symObjAddr: 0x3918, symBinAddr: 0x100005C24, symSize: 0x34 }
  - { offset: 0x1109B, size: 0x8, addend: 0x0, symName: __ZNSt12_Vector_baseIiSaIiEE17_Vector_impl_dataC2Ev, symObjAddr: 0x38EC, symBinAddr: 0x100005BF8, symSize: 0x2C }
  - { offset: 0x110D4, size: 0x8, addend: 0x0, symName: __ZSt3minImERKT_S2_S2_, symObjAddr: 0x38B4, symBinAddr: 0x100005BC0, symSize: 0x38 }
  - { offset: 0x11127, size: 0x8, addend: 0x0, symName: __ZSt8_DestroyIPSt4pairIdiEEvT_S3_, symObjAddr: 0x388C, symBinAddr: 0x100005B98, symSize: 0x28 }
  - { offset: 0x11166, size: 0x8, addend: 0x0, symName: __ZSt27__uninitialized_default_n_aIPSt4pairIdiEmS1_ET_S3_T0_RSaIT1_E, symObjAddr: 0x3864, symBinAddr: 0x100005B70, symSize: 0x28 }
  - { offset: 0x111C5, size: 0x8, addend: 0x0, symName: __ZNSt12_Vector_baseISt4pairIdiESaIS1_EE13_M_deallocateEPS1_m, symObjAddr: 0x380C, symBinAddr: 0x100005B18, symSize: 0x58 }
  - { offset: 0x1123F, size: 0x8, addend: 0x0, symName: __ZNSt12_Vector_baseISt4pairIdiESaIS1_EE17_M_create_storageEm, symObjAddr: 0x37AC, symBinAddr: 0x100005AB8, symSize: 0x60 }
  - { offset: 0x1129B, size: 0x8, addend: 0x0, symName: __ZNSt12_Vector_baseISt4pairIdiESaIS1_EE12_Vector_implC1ERKS2_, symObjAddr: 0x3760, symBinAddr: 0x100005A6C, symSize: 0x4C }
  - { offset: 0x11335, size: 0x8, addend: 0x0, symName: __ZNSt6vectorISt4pairIdiESaIS1_EE11_S_max_sizeERKS2_, symObjAddr: 0x370C, symBinAddr: 0x100005A18, symSize: 0x54 }
  - { offset: 0x113E2, size: 0x8, addend: 0x0, symName: __ZSt8_DestroyIPSt4pairIddEEvT_S3_, symObjAddr: 0x36E4, symBinAddr: 0x1000059F0, symSize: 0x28 }
  - { offset: 0x11421, size: 0x8, addend: 0x0, symName: __ZSt27__uninitialized_default_n_aIPSt4pairIddEmS1_ET_S3_T0_RSaIT1_E, symObjAddr: 0x36BC, symBinAddr: 0x1000059C8, symSize: 0x28 }
  - { offset: 0x11480, size: 0x8, addend: 0x0, symName: __ZNSt12_Vector_baseISt4pairIddESaIS1_EE13_M_deallocateEPS1_m, symObjAddr: 0x3664, symBinAddr: 0x100005970, symSize: 0x58 }
  - { offset: 0x114FA, size: 0x8, addend: 0x0, symName: __ZNSt12_Vector_baseISt4pairIddESaIS1_EE17_M_create_storageEm, symObjAddr: 0x3604, symBinAddr: 0x100005910, symSize: 0x60 }
  - { offset: 0x11556, size: 0x8, addend: 0x0, symName: __ZNSt12_Vector_baseISt4pairIddESaIS1_EE12_Vector_implC1ERKS2_, symObjAddr: 0x35B8, symBinAddr: 0x1000058C4, symSize: 0x4C }
  - { offset: 0x115F0, size: 0x8, addend: 0x0, symName: __ZNSt6vectorISt4pairIddESaIS1_EE11_S_max_sizeERKS2_, symObjAddr: 0x3564, symBinAddr: 0x100005870, symSize: 0x54 }
  - { offset: 0x1169D, size: 0x8, addend: 0x0, symName: __ZNSt6vectorISt4pairIdiESaIS1_EE11_S_relocateEPS1_S4_S4_RS2_, symObjAddr: 0x3530, symBinAddr: 0x10000583C, symSize: 0x34 }
  - { offset: 0x116F5, size: 0x8, addend: 0x0, symName: __ZSt12__to_addressISt4pairIdiEEPT_S3_, symObjAddr: 0x351C, symBinAddr: 0x100005828, symSize: 0x14 }
  - { offset: 0x11757, size: 0x8, addend: 0x0, symName: __ZNSt12_Vector_baseISt4pairIdiESaIS1_EE11_M_allocateEm, symObjAddr: 0x34CC, symBinAddr: 0x1000057D8, symSize: 0x50 }
  - { offset: 0x117BB, size: 0x8, addend: 0x0, symName: __ZN9__gnu_cxxmiIPSt4pairIdiESt6vectorIS2_SaIS2_EEEENS_17__normal_iteratorIT_T0_E15difference_typeERKSA_SD_, symObjAddr: 0x348C, symBinAddr: 0x100005798, symSize: 0x40 }
  - { offset: 0x11809, size: 0x8, addend: 0x0, symName: __ZNKSt6vectorISt4pairIdiESaIS1_EE12_M_check_lenEmPKc, symObjAddr: 0x33BC, symBinAddr: 0x1000056C8, symSize: 0xD0 }
  - { offset: 0x118A1, size: 0x8, addend: 0x0, symName: __ZSt7forwardIRKSt4pairIdiEEOT_RNSt16remove_referenceIS4_E4typeE, symObjAddr: 0x33A8, symBinAddr: 0x1000056B4, symSize: 0x14 }
  - { offset: 0x118D1, size: 0x8, addend: 0x0, symName: __ZSt8_DestroyIPSt6vectorISt4pairIdiESaIS2_EEEvT_S6_, symObjAddr: 0x3380, symBinAddr: 0x10000568C, symSize: 0x28 }
  - { offset: 0x11910, size: 0x8, addend: 0x0, symName: __ZSt27__uninitialized_default_n_aIPSt6vectorISt4pairIdiESaIS2_EEmS4_ET_S6_T0_RSaIT1_E, symObjAddr: 0x3358, symBinAddr: 0x100005664, symSize: 0x28 }
  - { offset: 0x1196F, size: 0x8, addend: 0x0, symName: __ZNSt12_Vector_baseISt6vectorISt4pairIdiESaIS2_EESaIS4_EE13_M_deallocateEPS4_m, symObjAddr: 0x3300, symBinAddr: 0x10000560C, symSize: 0x58 }
  - { offset: 0x119E9, size: 0x8, addend: 0x0, symName: __ZNSt12_Vector_baseISt6vectorISt4pairIdiESaIS2_EESaIS4_EE17_M_create_storageEm, symObjAddr: 0x3294, symBinAddr: 0x1000055A0, symSize: 0x6C }
  - { offset: 0x11A45, size: 0x8, addend: 0x0, symName: __ZNSt12_Vector_baseISt6vectorISt4pairIdiESaIS2_EESaIS4_EE12_Vector_implC1ERKS5_, symObjAddr: 0x3248, symBinAddr: 0x100005554, symSize: 0x4C }
  - { offset: 0x11ADF, size: 0x8, addend: 0x0, symName: __ZNSt6vectorIS_ISt4pairIdiESaIS1_EESaIS3_EE11_S_max_sizeERKS4_, symObjAddr: 0x31EC, symBinAddr: 0x1000054F8, symSize: 0x5C }
  - { offset: 0x11B8C, size: 0x8, addend: 0x0, symName: __ZSt4swapIiENSt9enable_ifIXsrSt6__and_IJSt6__not_ISt15__is_tuple_likeIT_EESt21is_move_constructibleIS4_ESt18is_move_assignableIS4_EEE5valueEvE4typeERS4_SE_, symObjAddr: 0x3198, symBinAddr: 0x1000054A4, symSize: 0x54 }
  - { offset: 0x11BE0, size: 0x8, addend: 0x0, symName: __ZSt4moveIRiEONSt16remove_referenceIT_E4typeEOS2_, symObjAddr: 0x3184, symBinAddr: 0x100005490, symSize: 0x14 }
  - { offset: 0x11C10, size: 0x8, addend: 0x0, symName: __ZSt4swapIdENSt9enable_ifIXsrSt6__and_IJSt6__not_ISt15__is_tuple_likeIT_EESt21is_move_constructibleIS4_ESt18is_move_assignableIS4_EEE5valueEvE4typeERS4_SE_, symObjAddr: 0x3130, symBinAddr: 0x10000543C, symSize: 0x54 }
  - { offset: 0x11C64, size: 0x8, addend: 0x0, symName: __ZSt4moveIRdEONSt16remove_referenceIT_E4typeEOS2_, symObjAddr: 0x311C, symBinAddr: 0x100005428, symSize: 0x14 }
  - { offset: 0x11C94, size: 0x8, addend: 0x0, symName: __ZNSt6vectorIiSaIiEE11_S_relocateEPiS2_S2_RS0_, symObjAddr: 0x30E8, symBinAddr: 0x1000053F4, symSize: 0x34 }
  - { offset: 0x11CEC, size: 0x8, addend: 0x0, symName: __ZSt12__to_addressIiEPT_S1_, symObjAddr: 0x30D4, symBinAddr: 0x1000053E0, symSize: 0x14 }
  - { offset: 0x11D4E, size: 0x8, addend: 0x0, symName: __ZNSt12_Vector_baseIiSaIiEE11_M_allocateEm, symObjAddr: 0x3084, symBinAddr: 0x100005390, symSize: 0x50 }
  - { offset: 0x11DB2, size: 0x8, addend: 0x0, symName: __ZN9__gnu_cxxmiIPiSt6vectorIiSaIiEEEENS_17__normal_iteratorIT_T0_E15difference_typeERKS8_SB_, symObjAddr: 0x3044, symBinAddr: 0x100005350, symSize: 0x40 }
  - { offset: 0x11E00, size: 0x8, addend: 0x0, symName: __ZNKSt6vectorIiSaIiEE12_M_check_lenEmPKc, symObjAddr: 0x2F74, symBinAddr: 0x100005280, symSize: 0xD0 }
  - { offset: 0x11E98, size: 0x8, addend: 0x0, symName: __ZSt7forwardIRKiEOT_RNSt16remove_referenceIS2_E4typeE, symObjAddr: 0x2F60, symBinAddr: 0x10000526C, symSize: 0x14 }
  - { offset: 0x11EC8, size: 0x8, addend: 0x0, symName: __ZSt8_DestroyIPSt6vectorIiSaIiEEEvT_S4_, symObjAddr: 0x2F38, symBinAddr: 0x100005244, symSize: 0x28 }
  - { offset: 0x11F07, size: 0x8, addend: 0x0, symName: __ZSt27__uninitialized_default_n_aIPSt6vectorIiSaIiEEmS2_ET_S4_T0_RSaIT1_E, symObjAddr: 0x2F10, symBinAddr: 0x10000521C, symSize: 0x28 }
  - { offset: 0x11F66, size: 0x8, addend: 0x0, symName: __ZNSt12_Vector_baseISt6vectorIiSaIiEESaIS2_EE13_M_deallocateEPS2_m, symObjAddr: 0x2EB8, symBinAddr: 0x1000051C4, symSize: 0x58 }
  - { offset: 0x11FE0, size: 0x8, addend: 0x0, symName: __ZNSt12_Vector_baseISt6vectorIiSaIiEESaIS2_EE17_M_create_storageEm, symObjAddr: 0x2E4C, symBinAddr: 0x100005158, symSize: 0x6C }
  - { offset: 0x1203C, size: 0x8, addend: 0x0, symName: __ZNSt12_Vector_baseISt6vectorIiSaIiEESaIS2_EE12_Vector_implC1ERKS3_, symObjAddr: 0x2E00, symBinAddr: 0x10000510C, symSize: 0x4C }
  - { offset: 0x120D6, size: 0x8, addend: 0x0, symName: __ZNSt6vectorIS_IiSaIiEESaIS1_EE11_S_max_sizeERKS2_, symObjAddr: 0x2DA4, symBinAddr: 0x1000050B0, symSize: 0x5C }
  - { offset: 0x12183, size: 0x8, addend: 0x0, symName: __ZSt27__uninitialized_default_n_aIPimiET_S1_T0_RSaIT1_E, symObjAddr: 0x2D7C, symBinAddr: 0x100005088, symSize: 0x28 }
  - { offset: 0x121E2, size: 0x8, addend: 0x0, symName: __ZNSt6vectorISt4pairIiiESaIS1_EE4backEv, symObjAddr: 0x2D44, symBinAddr: 0x100005050, symSize: 0x38 }
  - { offset: 0x1220A, size: 0x8, addend: 0x0, symName: __ZNSt6vectorISt4pairIiiESaIS1_EE17_M_realloc_appendIJS1_EEEvDpOT_, symObjAddr: 0x2B88, symBinAddr: 0x100004E94, symSize: 0x1BC }
  - { offset: 0x1237E, size: 0x8, addend: 0x0, symName: __ZZNSt6vectorISt4pairIiiESaIS1_EE17_M_realloc_appendIJS1_EEEvDpOT_EN6_GuardC1EPS1_mRS2_, symObjAddr: 0x2AE4, symBinAddr: 0x100004DF0, symSize: 0x44 }
  - { offset: 0x123BE, size: 0x8, addend: 0x0, symName: __ZZNSt6vectorISt4pairIiiESaIS1_EE17_M_realloc_appendIJS1_EEEvDpOT_EN6_GuardD1Ev, symObjAddr: 0x2B28, symBinAddr: 0x100004E34, symSize: 0x60 }
  - { offset: 0x124E4, size: 0x8, addend: 0x0, symName: __ZSt7forwardISt4pairIiiEEOT_RNSt16remove_referenceIS2_E4typeE, symObjAddr: 0x2AD0, symBinAddr: 0x100004DDC, symSize: 0x14 }
  - { offset: 0x12514, size: 0x8, addend: 0x0, symName: __ZSt8_DestroyIPSt4pairIiiEEvT_S3_, symObjAddr: 0x2AA8, symBinAddr: 0x100004DB4, symSize: 0x28 }
  - { offset: 0x12595, size: 0x8, addend: 0x0, symName: __ZSt8_DestroyIPiEvT_S1_, symObjAddr: 0x2A80, symBinAddr: 0x100004D8C, symSize: 0x28 }
  - { offset: 0x125D4, size: 0x8, addend: 0x0, symName: __ZSt24__uninitialized_fill_n_aIPimiiET_S1_T0_RKT1_RSaIT2_E, symObjAddr: 0x2A50, symBinAddr: 0x100004D5C, symSize: 0x30 }
  - { offset: 0x1264C, size: 0x8, addend: 0x0, symName: __ZNSt12_Vector_baseIiSaIiEE13_M_deallocateEPim, symObjAddr: 0x29F8, symBinAddr: 0x100004D04, symSize: 0x58 }
  - { offset: 0x126C6, size: 0x8, addend: 0x0, symName: __ZNSt12_Vector_baseIiSaIiEE17_M_create_storageEm, symObjAddr: 0x2998, symBinAddr: 0x100004CA4, symSize: 0x60 }
  - { offset: 0x12722, size: 0x8, addend: 0x0, symName: __ZNSt12_Vector_baseIiSaIiEE12_Vector_implC1ERKS0_, symObjAddr: 0x294C, symBinAddr: 0x100004C58, symSize: 0x4C }
  - { offset: 0x127BC, size: 0x8, addend: 0x0, symName: __ZNSt6vectorIiSaIiEE11_S_max_sizeERKS0_, symObjAddr: 0x28F8, symBinAddr: 0x100004C04, symSize: 0x54 }
  - { offset: 0x1286F, size: 0x8, addend: 0x0, symName: __ZSt7forwardIiEOT_RNSt16remove_referenceIS0_E4typeE, symObjAddr: 0x28E4, symBinAddr: 0x100004BF0, symSize: 0x14 }
  - { offset: 0x128A5, size: 0x8, addend: 0x0, symName: __ZSt7forwardIdEOT_RNSt16remove_referenceIS0_E4typeE, symObjAddr: 0x28D0, symBinAddr: 0x100004BDC, symSize: 0x14 }
  - { offset: 0x12911, size: 0x8, addend: 0x0, symName: __ZNSt12_Vector_baseISt4pairIdiESaIS1_EE19_M_get_Tp_allocatorEv, symObjAddr: 0x28BC, symBinAddr: 0x100004BC8, symSize: 0x14 }
  - { offset: 0x12939, size: 0x8, addend: 0x0, symName: __ZNSt6vectorISt4pairIdiESaIS1_EE21_M_default_initializeEm, symObjAddr: 0x286C, symBinAddr: 0x100004B78, symSize: 0x50 }
  - { offset: 0x12992, size: 0x8, addend: 0x0, symName: __ZNSt12_Vector_baseISt4pairIdiESaIS1_EED2Ev, symObjAddr: 0x281C, symBinAddr: 0x100004B28, symSize: 0x50 }
  - { offset: 0x129E8, size: 0x8, addend: 0x0, symName: __ZNSt12_Vector_baseISt4pairIdiESaIS1_EEC2EmRKS2_, symObjAddr: 0x27C8, symBinAddr: 0x100004AD4, symSize: 0x54 }
  - { offset: 0x12A41, size: 0x8, addend: 0x0, symName: __ZNSt12_Vector_baseISt4pairIdiESaIS1_EE12_Vector_implD1Ev, symObjAddr: 0x279C, symBinAddr: 0x100004AA8, symSize: 0x2C }
  - { offset: 0x12A82, size: 0x8, addend: 0x0, symName: __ZNSt6vectorISt4pairIdiESaIS1_EE17_S_check_init_lenEmRKS2_, symObjAddr: 0x2718, symBinAddr: 0x100004A24, symSize: 0x84 }
  - { offset: 0x12B4E, size: 0x8, addend: 0x0, symName: __ZNSt15__new_allocatorISt4pairIdiEED2Ev, symObjAddr: 0x2704, symBinAddr: 0x100004A10, symSize: 0x14 }
  - { offset: 0x12BBE, size: 0x8, addend: 0x0, symName: __ZNSt12_Vector_baseISt4pairIddESaIS1_EE19_M_get_Tp_allocatorEv, symObjAddr: 0x26F0, symBinAddr: 0x1000049FC, symSize: 0x14 }
  - { offset: 0x12BE6, size: 0x8, addend: 0x0, symName: __ZNSt6vectorISt4pairIddESaIS1_EE21_M_default_initializeEm, symObjAddr: 0x26A0, symBinAddr: 0x1000049AC, symSize: 0x50 }
  - { offset: 0x12C3F, size: 0x8, addend: 0x0, symName: __ZNSt12_Vector_baseISt4pairIddESaIS1_EED2Ev, symObjAddr: 0x2650, symBinAddr: 0x10000495C, symSize: 0x50 }
  - { offset: 0x12C95, size: 0x8, addend: 0x0, symName: __ZNSt12_Vector_baseISt4pairIddESaIS1_EEC2EmRKS2_, symObjAddr: 0x25FC, symBinAddr: 0x100004908, symSize: 0x54 }
  - { offset: 0x12CEE, size: 0x8, addend: 0x0, symName: __ZNSt12_Vector_baseISt4pairIddESaIS1_EE12_Vector_implD1Ev, symObjAddr: 0x25D0, symBinAddr: 0x1000048DC, symSize: 0x2C }
  - { offset: 0x12D2F, size: 0x8, addend: 0x0, symName: __ZNSt6vectorISt4pairIddESaIS1_EE17_S_check_init_lenEmRKS2_, symObjAddr: 0x254C, symBinAddr: 0x100004858, symSize: 0x84 }
  - { offset: 0x12DFB, size: 0x8, addend: 0x0, symName: __ZNSt15__new_allocatorISt4pairIddEED2Ev, symObjAddr: 0x2538, symBinAddr: 0x100004844, symSize: 0x14 }
  - { offset: 0x12E33, size: 0x8, addend: 0x0, symName: __ZNK9__gnu_cxx17__normal_iteratorIPSt4pairIdiESt6vectorIS2_SaIS2_EEE4baseEv, symObjAddr: 0x2524, symBinAddr: 0x100004830, symSize: 0x14 }
  - { offset: 0x12E80, size: 0x8, addend: 0x0, symName: __ZN9__gnu_cxx17__normal_iteratorIPSt4pairIdiESt6vectorIS2_SaIS2_EEEC1ERKS3_, symObjAddr: 0x24FC, symBinAddr: 0x100004808, symSize: 0x28 }
  - { offset: 0x12EAC, size: 0x8, addend: 0x0, symName: __ZNSt6vectorISt4pairIdiESaIS1_EE17_M_realloc_appendIJRKS1_EEEvDpOT_, symObjAddr: 0x2340, symBinAddr: 0x10000464C, symSize: 0x1BC }
  - { offset: 0x13020, size: 0x8, addend: 0x0, symName: __ZZNSt6vectorISt4pairIdiESaIS1_EE17_M_realloc_appendIJRKS1_EEEvDpOT_EN6_GuardC1EPS1_mRS2_, symObjAddr: 0x229C, symBinAddr: 0x1000045A8, symSize: 0x44 }
  - { offset: 0x13060, size: 0x8, addend: 0x0, symName: __ZZNSt6vectorISt4pairIdiESaIS1_EE17_M_realloc_appendIJRKS1_EEEvDpOT_EN6_GuardD1Ev, symObjAddr: 0x22E0, symBinAddr: 0x1000045EC, symSize: 0x60 }
  - { offset: 0x131BC, size: 0x8, addend: 0x0, symName: __ZNSt12_Vector_baseISt6vectorISt4pairIdiESaIS2_EESaIS4_EE19_M_get_Tp_allocatorEv, symObjAddr: 0x2288, symBinAddr: 0x100004594, symSize: 0x14 }
  - { offset: 0x131E4, size: 0x8, addend: 0x0, symName: __ZNSt6vectorIS_ISt4pairIdiESaIS1_EESaIS3_EE21_M_default_initializeEm, symObjAddr: 0x2238, symBinAddr: 0x100004544, symSize: 0x50 }
  - { offset: 0x1323D, size: 0x8, addend: 0x0, symName: __ZNSt12_Vector_baseISt6vectorISt4pairIdiESaIS2_EESaIS4_EED2Ev, symObjAddr: 0x21DC, symBinAddr: 0x1000044E8, symSize: 0x5C }
  - { offset: 0x13293, size: 0x8, addend: 0x0, symName: __ZNSt12_Vector_baseISt6vectorISt4pairIdiESaIS2_EESaIS4_EEC2EmRKS5_, symObjAddr: 0x2188, symBinAddr: 0x100004494, symSize: 0x54 }
  - { offset: 0x132EC, size: 0x8, addend: 0x0, symName: __ZNSt12_Vector_baseISt6vectorISt4pairIdiESaIS2_EESaIS4_EE12_Vector_implD1Ev, symObjAddr: 0x215C, symBinAddr: 0x100004468, symSize: 0x2C }
  - { offset: 0x1332D, size: 0x8, addend: 0x0, symName: __ZNSt6vectorIS_ISt4pairIdiESaIS1_EESaIS3_EE17_S_check_init_lenEmRKS4_, symObjAddr: 0x20D8, symBinAddr: 0x1000043E4, symSize: 0x84 }
  - { offset: 0x133F9, size: 0x8, addend: 0x0, symName: __ZNSt15__new_allocatorISt6vectorISt4pairIdiESaIS2_EEED2Ev, symObjAddr: 0x20C4, symBinAddr: 0x1000043D0, symSize: 0x14 }
  - { offset: 0x13431, size: 0x8, addend: 0x0, symName: __ZNSt4pairIdiE4swapERS0_, symObjAddr: 0x2080, symBinAddr: 0x10000438C, symSize: 0x44 }
  - { offset: 0x13469, size: 0x8, addend: 0x0, symName: __ZNK9__gnu_cxx17__normal_iteratorIPiSt6vectorIiSaIiEEE4baseEv, symObjAddr: 0x206C, symBinAddr: 0x100004378, symSize: 0x14 }
  - { offset: 0x134B6, size: 0x8, addend: 0x0, symName: __ZN9__gnu_cxx17__normal_iteratorIPiSt6vectorIiSaIiEEEC1ERKS1_, symObjAddr: 0x2044, symBinAddr: 0x100004350, symSize: 0x28 }
  - { offset: 0x134E2, size: 0x8, addend: 0x0, symName: __ZNK9__gnu_cxx17__normal_iteratorIPSt4pairIiiESt6vectorIS2_SaIS2_EEE4baseEv, symObjAddr: 0x2030, symBinAddr: 0x10000433C, symSize: 0x14 }
  - { offset: 0x1352F, size: 0x8, addend: 0x0, symName: __ZN9__gnu_cxx17__normal_iteratorIPSt4pairIiiESt6vectorIS2_SaIS2_EEEC1ERKS3_, symObjAddr: 0x2008, symBinAddr: 0x100004314, symSize: 0x28 }
  - { offset: 0x1355B, size: 0x8, addend: 0x0, symName: __ZNSt6vectorIiSaIiEE17_M_realloc_appendIJRKiEEEvDpOT_, symObjAddr: 0x1E4C, symBinAddr: 0x100004158, symSize: 0x1BC }
  - { offset: 0x136CF, size: 0x8, addend: 0x0, symName: __ZZNSt6vectorIiSaIiEE17_M_realloc_appendIJRKiEEEvDpOT_EN6_GuardC1EPimRS0_, symObjAddr: 0x1DA8, symBinAddr: 0x1000040B4, symSize: 0x44 }
  - { offset: 0x1370F, size: 0x8, addend: 0x0, symName: __ZZNSt6vectorIiSaIiEE17_M_realloc_appendIJRKiEEEvDpOT_EN6_GuardD1Ev, symObjAddr: 0x1DEC, symBinAddr: 0x1000040F8, symSize: 0x60 }
  - { offset: 0x1386B, size: 0x8, addend: 0x0, symName: __ZNSt12_Vector_baseISt6vectorIiSaIiEESaIS2_EE19_M_get_Tp_allocatorEv, symObjAddr: 0x1D94, symBinAddr: 0x1000040A0, symSize: 0x14 }
  - { offset: 0x13893, size: 0x8, addend: 0x0, symName: __ZNSt6vectorIS_IiSaIiEESaIS1_EE21_M_default_initializeEm, symObjAddr: 0x1D44, symBinAddr: 0x100004050, symSize: 0x50 }
  - { offset: 0x138EC, size: 0x8, addend: 0x0, symName: __ZNSt12_Vector_baseISt6vectorIiSaIiEESaIS2_EED2Ev, symObjAddr: 0x1CE8, symBinAddr: 0x100003FF4, symSize: 0x5C }
  - { offset: 0x13942, size: 0x8, addend: 0x0, symName: __ZNSt12_Vector_baseISt6vectorIiSaIiEESaIS2_EEC2EmRKS3_, symObjAddr: 0x1C94, symBinAddr: 0x100003FA0, symSize: 0x54 }
  - { offset: 0x1399B, size: 0x8, addend: 0x0, symName: __ZNSt12_Vector_baseISt6vectorIiSaIiEESaIS2_EE12_Vector_implD1Ev, symObjAddr: 0x1C68, symBinAddr: 0x100003F74, symSize: 0x2C }
  - { offset: 0x139DC, size: 0x8, addend: 0x0, symName: __ZNSt6vectorIS_IiSaIiEESaIS1_EE17_S_check_init_lenEmRKS2_, symObjAddr: 0x1BE4, symBinAddr: 0x100003EF0, symSize: 0x84 }
  - { offset: 0x13AA8, size: 0x8, addend: 0x0, symName: __ZNSt15__new_allocatorISt6vectorIiSaIiEEED2Ev, symObjAddr: 0x1BD0, symBinAddr: 0x100003EDC, symSize: 0x14 }
  - { offset: 0x13AE0, size: 0x8, addend: 0x0, symName: __ZNSt6vectorIiSaIiEE21_M_default_initializeEm, symObjAddr: 0x1B80, symBinAddr: 0x100003E8C, symSize: 0x50 }
  - { offset: 0x13B18, size: 0x8, addend: 0x0, symName: __ZNSt6vectorISt4pairIiiESaIS1_EE12emplace_backIJS1_EEERS1_DpOT_, symObjAddr: 0x1AA8, symBinAddr: 0x100003DB4, symSize: 0xD8 }
  - { offset: 0x13BBD, size: 0x8, addend: 0x0, symName: __ZSt4moveIRSt4pairIiiEEONSt16remove_referenceIT_E4typeEOS4_, symObjAddr: 0x1A94, symBinAddr: 0x100003DA0, symSize: 0x14 }
  - { offset: 0x13BF3, size: 0x8, addend: 0x0, symName: __ZSt7forwardIRiEOT_RNSt16remove_referenceIS1_E4typeE, symObjAddr: 0x1A80, symBinAddr: 0x100003D8C, symSize: 0x14 }
  - { offset: 0x13C5F, size: 0x8, addend: 0x0, symName: __ZNSt12_Vector_baseISt4pairIiiESaIS1_EE19_M_get_Tp_allocatorEv, symObjAddr: 0x1A6C, symBinAddr: 0x100003D78, symSize: 0x14 }
  - { offset: 0x13C87, size: 0x8, addend: 0x0, symName: __ZNSt12_Vector_baseISt4pairIiiESaIS1_EE13_M_deallocateEPS1_m, symObjAddr: 0x1A14, symBinAddr: 0x100003D20, symSize: 0x58 }
  - { offset: 0x13D22, size: 0x8, addend: 0x0, symName: __ZNSt15__new_allocatorISt4pairIiiEED2Ev, symObjAddr: 0x1A00, symBinAddr: 0x100003D0C, symSize: 0x14 }
  - { offset: 0x13D5E, size: 0x8, addend: 0x0, symName: __ZNSt12_Vector_baseISt4pairIiiESaIS1_EE17_Vector_impl_dataC2Ev, symObjAddr: 0x19D4, symBinAddr: 0x100003CE0, symSize: 0x2C }
  - { offset: 0x13DCE, size: 0x8, addend: 0x0, symName: __ZNSt12_Vector_baseIiSaIiEE19_M_get_Tp_allocatorEv, symObjAddr: 0x19C0, symBinAddr: 0x100003CCC, symSize: 0x14 }
  - { offset: 0x13DF6, size: 0x8, addend: 0x0, symName: __ZNSt6vectorIiSaIiEE18_M_fill_initializeEmRKi, symObjAddr: 0x1968, symBinAddr: 0x100003C74, symSize: 0x58 }
  - { offset: 0x13E5F, size: 0x8, addend: 0x0, symName: __ZNSt12_Vector_baseIiSaIiEED2Ev, symObjAddr: 0x1918, symBinAddr: 0x100003C24, symSize: 0x50 }
  - { offset: 0x13EB5, size: 0x8, addend: 0x0, symName: __ZNSt12_Vector_baseIiSaIiEEC2EmRKS0_, symObjAddr: 0x18C4, symBinAddr: 0x100003BD0, symSize: 0x54 }
  - { offset: 0x13F0E, size: 0x8, addend: 0x0, symName: __ZNSt12_Vector_baseIiSaIiEE12_Vector_implD1Ev, symObjAddr: 0x1898, symBinAddr: 0x100003BA4, symSize: 0x2C }
  - { offset: 0x13F4F, size: 0x8, addend: 0x0, symName: __ZNSt6vectorIiSaIiEE17_S_check_init_lenEmRKS0_, symObjAddr: 0x1814, symBinAddr: 0x100003B20, symSize: 0x84 }
  - { offset: 0x1401B, size: 0x8, addend: 0x0, symName: __ZNSt15__new_allocatorIiED2Ev, symObjAddr: 0x1800, symBinAddr: 0x100003B0C, symSize: 0x14 }
  - { offset: 0x14053, size: 0x8, addend: 0x0, symName: __ZNSt4pairIdiEaSEOS0_, symObjAddr: 0x17B8, symBinAddr: 0x100003AC4, symSize: 0x48 }
  - { offset: 0x140CF, size: 0x8, addend: 0x0, symName: __ZNSt4pairIdiEC1IdRiLb1EEEOT_OT0_, symObjAddr: 0x1770, symBinAddr: 0x100003A7C, symSize: 0x48 }
  - { offset: 0x14115, size: 0x8, addend: 0x0, symName: __ZNSt6vectorISt4pairIddESaIS1_EEixEm, symObjAddr: 0x1748, symBinAddr: 0x100003A54, symSize: 0x28 }
  - { offset: 0x1416E, size: 0x8, addend: 0x0, symName: __ZNSt6vectorISt4pairIdiESaIS1_EED1Ev, symObjAddr: 0x16EC, symBinAddr: 0x1000039F8, symSize: 0x5C }
  - { offset: 0x141F6, size: 0x8, addend: 0x0, symName: __ZNSt6vectorISt4pairIdiESaIS1_EEC1EmRKS2_, symObjAddr: 0x1684, symBinAddr: 0x100003990, symSize: 0x68 }
  - { offset: 0x1427C, size: 0x8, addend: 0x0, symName: __ZNSt6vectorISt4pairIddESaIS1_EED1Ev, symObjAddr: 0x1628, symBinAddr: 0x100003934, symSize: 0x5C }
  - { offset: 0x14304, size: 0x8, addend: 0x0, symName: __ZNSt6vectorISt4pairIddESaIS1_EEC1EmRKS2_, symObjAddr: 0x15C0, symBinAddr: 0x1000038CC, symSize: 0x68 }
  - { offset: 0x14369, size: 0x8, addend: 0x0, symName: __ZNSt4pairIdiEaSERKS0_, symObjAddr: 0x1588, symBinAddr: 0x100003894, symSize: 0x38 }
  - { offset: 0x143A1, size: 0x8, addend: 0x0, symName: __ZNK9__gnu_cxx17__normal_iteratorIPSt4pairIdiESt6vectorIS2_SaIS2_EEEdeEv, symObjAddr: 0x1570, symBinAddr: 0x10000387C, symSize: 0x18 }
  - { offset: 0x143C9, size: 0x8, addend: 0x0, symName: __ZN9__gnu_cxx17__normal_iteratorIPSt4pairIdiESt6vectorIS2_SaIS2_EEEppEv, symObjAddr: 0x1548, symBinAddr: 0x100003854, symSize: 0x28 }
  - { offset: 0x143ED, size: 0x8, addend: 0x0, symName: __ZN9__gnu_cxxneIPSt4pairIdiESt6vectorIS2_SaIS2_EEEEbRKNS_17__normal_iteratorIT_T0_EESC_, symObjAddr: 0x1504, symBinAddr: 0x100003810, symSize: 0x44 }
  - { offset: 0x1443B, size: 0x8, addend: 0x0, symName: __ZNSt6vectorISt4pairIdiESaIS1_EE3endEv, symObjAddr: 0x14DC, symBinAddr: 0x1000037E8, symSize: 0x28 }
  - { offset: 0x14463, size: 0x8, addend: 0x0, symName: __ZNSt6vectorISt4pairIdiESaIS1_EE5beginEv, symObjAddr: 0x14B8, symBinAddr: 0x1000037C4, symSize: 0x24 }
  - { offset: 0x1448B, size: 0x8, addend: 0x0, symName: __ZNSt6vectorISt4pairIdiESaIS1_EE9push_backERKS1_, symObjAddr: 0x13F0, symBinAddr: 0x1000036FC, symSize: 0xC8 }
  - { offset: 0x14527, size: 0x8, addend: 0x0, symName: __ZNSt6vectorIS_ISt4pairIdiESaIS1_EESaIS3_EEixEm, symObjAddr: 0x13BC, symBinAddr: 0x1000036C8, symSize: 0x34 }
  - { offset: 0x1455B, size: 0x8, addend: 0x0, symName: __ZSt3minIiERKT_S2_S2_, symObjAddr: 0x1384, symBinAddr: 0x100003690, symSize: 0x38 }
  - { offset: 0x145BF, size: 0x8, addend: 0x0, symName: __ZNSt6vectorIS_ISt4pairIdiESaIS1_EESaIS3_EED1Ev, symObjAddr: 0x1328, symBinAddr: 0x100003634, symSize: 0x5C }
  - { offset: 0x14647, size: 0x8, addend: 0x0, symName: __ZNSt6vectorIS_ISt4pairIdiESaIS1_EESaIS3_EEC1EmRKS4_, symObjAddr: 0x12C0, symBinAddr: 0x1000035CC, symSize: 0x68 }
  - { offset: 0x146A8, size: 0x8, addend: 0x0, symName: __ZSt4swapIdiENSt9enable_ifIXsrSt6__and_IJSt14__is_swappableIT_ES2_IT0_EEE5valueEvE4typeERSt4pairIS3_S5_ESC_, symObjAddr: 0x1298, symBinAddr: 0x1000035A4, symSize: 0x28 }
  - { offset: 0x146F6, size: 0x8, addend: 0x0, symName: __ZNSt6vectorISt4pairIdiESaIS1_EEixEm, symObjAddr: 0x1270, symBinAddr: 0x10000357C, symSize: 0x28 }
  - { offset: 0x1472E, size: 0x8, addend: 0x0, symName: __ZNKSt6vectorISt4pairIdiESaIS1_EE4sizeEv, symObjAddr: 0x1248, symBinAddr: 0x100003554, symSize: 0x28 }
  - { offset: 0x14756, size: 0x8, addend: 0x0, symName: __ZNK9__gnu_cxx17__normal_iteratorIPiSt6vectorIiSaIiEEEdeEv, symObjAddr: 0x1230, symBinAddr: 0x10000353C, symSize: 0x18 }
  - { offset: 0x1477E, size: 0x8, addend: 0x0, symName: __ZN9__gnu_cxx17__normal_iteratorIPiSt6vectorIiSaIiEEEppEv, symObjAddr: 0x1208, symBinAddr: 0x100003514, symSize: 0x28 }
  - { offset: 0x147A2, size: 0x8, addend: 0x0, symName: __ZN9__gnu_cxxneIPiSt6vectorIiSaIiEEEEbRKNS_17__normal_iteratorIT_T0_EESA_, symObjAddr: 0x11C4, symBinAddr: 0x1000034D0, symSize: 0x44 }
  - { offset: 0x147F0, size: 0x8, addend: 0x0, symName: __ZNSt6vectorIiSaIiEE3endEv, symObjAddr: 0x119C, symBinAddr: 0x1000034A8, symSize: 0x28 }
  - { offset: 0x14818, size: 0x8, addend: 0x0, symName: __ZNSt6vectorIiSaIiEE5beginEv, symObjAddr: 0x1178, symBinAddr: 0x100003484, symSize: 0x24 }
  - { offset: 0x14840, size: 0x8, addend: 0x0, symName: __ZNK9__gnu_cxx17__normal_iteratorIPSt4pairIiiESt6vectorIS2_SaIS2_EEEdeEv, symObjAddr: 0x1160, symBinAddr: 0x10000346C, symSize: 0x18 }
  - { offset: 0x14868, size: 0x8, addend: 0x0, symName: __ZN9__gnu_cxx17__normal_iteratorIPSt4pairIiiESt6vectorIS2_SaIS2_EEEppEv, symObjAddr: 0x1138, symBinAddr: 0x100003444, symSize: 0x28 }
  - { offset: 0x1488C, size: 0x8, addend: 0x0, symName: __ZN9__gnu_cxxneIPSt4pairIiiESt6vectorIS2_SaIS2_EEEEbRKNS_17__normal_iteratorIT_T0_EESC_, symObjAddr: 0x10F4, symBinAddr: 0x100003400, symSize: 0x44 }
  - { offset: 0x148DA, size: 0x8, addend: 0x0, symName: __ZNSt6vectorISt4pairIiiESaIS1_EE3endEv, symObjAddr: 0x10CC, symBinAddr: 0x1000033D8, symSize: 0x28 }
  - { offset: 0x14902, size: 0x8, addend: 0x0, symName: __ZNSt6vectorISt4pairIiiESaIS1_EE5beginEv, symObjAddr: 0x10A8, symBinAddr: 0x1000033B4, symSize: 0x24 }
  - { offset: 0x1492A, size: 0x8, addend: 0x0, symName: __ZNSt6vectorIiSaIiEE9push_backERKi, symObjAddr: 0xFE0, symBinAddr: 0x1000032EC, symSize: 0xC8 }
  - { offset: 0x149C6, size: 0x8, addend: 0x0, symName: __ZNSt6vectorIS_IiSaIiEESaIS1_EEixEm, symObjAddr: 0xFAC, symBinAddr: 0x1000032B8, symSize: 0x34 }
  - { offset: 0x14A1F, size: 0x8, addend: 0x0, symName: __ZNSt6vectorIS_IiSaIiEESaIS1_EED1Ev, symObjAddr: 0xF50, symBinAddr: 0x10000325C, symSize: 0x5C }
  - { offset: 0x14AA7, size: 0x8, addend: 0x0, symName: __ZNSt6vectorIS_IiSaIiEESaIS1_EEC1EmRKS2_, symObjAddr: 0xEE8, symBinAddr: 0x1000031F4, symSize: 0x68 }
  - { offset: 0x14B3E, size: 0x8, addend: 0x0, symName: __ZNSt6vectorIiSaIiEEC1EmRKS0_, symObjAddr: 0xE80, symBinAddr: 0x10000318C, symSize: 0x68 }
  - { offset: 0x14B72, size: 0x8, addend: 0x0, symName: __ZNSt4pairIiiEaSERKS0_, symObjAddr: 0xE48, symBinAddr: 0x100003154, symSize: 0x38 }
  - { offset: 0x14BAA, size: 0x8, addend: 0x0, symName: __ZNSt6vectorISt4pairIiiESaIS1_EEixEm, symObjAddr: 0xE20, symBinAddr: 0x10000312C, symSize: 0x28 }
  - { offset: 0x14BE2, size: 0x8, addend: 0x0, symName: __ZNKSt6vectorISt4pairIiiESaIS1_EE4sizeEv, symObjAddr: 0xDF8, symBinAddr: 0x100003104, symSize: 0x28 }
  - { offset: 0x14C0A, size: 0x8, addend: 0x0, symName: __ZNSt6vectorISt4pairIiiESaIS1_EE9push_backEOS1_, symObjAddr: 0xDC8, symBinAddr: 0x1000030D4, symSize: 0x30 }
  - { offset: 0x14C86, size: 0x8, addend: 0x0, symName: __ZNSt4pairIiiEC1IRiS2_Lb1EEEOT_OT0_, symObjAddr: 0xD80, symBinAddr: 0x10000308C, symSize: 0x48 }
  - { offset: 0x14CED, size: 0x8, addend: 0x0, symName: __ZNSt6vectorISt4pairIiiESaIS1_EED1Ev, symObjAddr: 0xD24, symBinAddr: 0x100003030, symSize: 0x5C }
  - { offset: 0x14D64, size: 0x8, addend: 0x0, symName: __ZNSt12_Vector_baseISt4pairIiiESaIS1_EED2Ev, symObjAddr: 0xCD4, symBinAddr: 0x100002FE0, symSize: 0x50 }
  - { offset: 0x14DBD, size: 0x8, addend: 0x0, symName: __ZNSt12_Vector_baseISt4pairIiiESaIS1_EE12_Vector_implC1Ev, symObjAddr: 0xC9C, symBinAddr: 0x100002FA8, symSize: 0x38 }
  - { offset: 0x14E23, size: 0x8, addend: 0x0, symName: __ZNSt6vectorIiSaIiEEixEm, symObjAddr: 0xC74, symBinAddr: 0x100002F80, symSize: 0x28 }
  - { offset: 0x14E7C, size: 0x8, addend: 0x0, symName: __ZNSt6vectorIiSaIiEED1Ev, symObjAddr: 0xC18, symBinAddr: 0x100002F24, symSize: 0x5C }
  - { offset: 0x14F11, size: 0x8, addend: 0x0, symName: __ZNSt6vectorIiSaIiEEC1EmRKiRKS0_, symObjAddr: 0xBA8, symBinAddr: 0x100002EB4, symSize: 0x70 }
  - { offset: 0x14F82, size: 0x8, addend: 0x0, symName: _main, symObjAddr: 0xB6C, symBinAddr: 0x100002E78, symSize: 0x3C }
  - { offset: 0x14FA1, size: 0x8, addend: 0x0, symName: __Z8problemBv, symObjAddr: 0x8D4, symBinAddr: 0x100002BE0, symSize: 0x298 }
  - { offset: 0x15177, size: 0x8, addend: 0x0, symName: __Z10bucketSortRSt6vectorISt4pairIdiESaIS1_EE, symObjAddr: 0x6C8, symBinAddr: 0x1000029D4, symSize: 0x20C }
  - { offset: 0x15323, size: 0x8, addend: 0x0, symName: __Z13insertionSortRSt6vectorISt4pairIdiESaIS1_EE, symObjAddr: 0x5B0, symBinAddr: 0x1000028BC, symSize: 0x118 }
  - { offset: 0x15396, size: 0x8, addend: 0x0, symName: __Z8problemAv, symObjAddr: 0x344, symBinAddr: 0x100002650, symSize: 0x26C }
  - { offset: 0x155CB, size: 0x8, addend: 0x0, symName: __Z9countSortRSt6vectorIiSaIiEEi, symObjAddr: 0x98, symBinAddr: 0x1000023A4, symSize: 0x2AC }
  - { offset: 0x15765, size: 0x8, addend: 0x0, symName: __ZNSt6vectorISt4pairIiiESaIS1_EEC1Ev, symObjAddr: 0x78, symBinAddr: 0x100002384, symSize: 0x20 }
  - { offset: 0x157A1, size: 0x8, addend: 0x0, symName: __ZNSt12_Vector_baseISt4pairIiiESaIS1_EEC2Ev, symObjAddr: 0x58, symBinAddr: 0x100002364, symSize: 0x20 }
  - { offset: 0x157EA, size: 0x8, addend: 0x0, symName: __ZNSt12_Vector_baseISt4pairIiiESaIS1_EE12_Vector_implD1Ev, symObjAddr: 0x2C, symBinAddr: 0x100002338, symSize: 0x2C }
  - { offset: 0x1582B, size: 0x8, addend: 0x0, symName: __ZSt17__size_to_integerm, symObjAddr: 0x18, symBinAddr: 0x100002324, symSize: 0x14 }
  - { offset: 0x1585F, size: 0x8, addend: 0x0, symName: __ZnwmPv, symObjAddr: 0x0, symBinAddr: 0x10000230C, symSize: 0x18 }
...
